target datalayout = "e-m:e-p270:32:32-p271:32:32-p272:64:64-i64:64-i128:128-f80:128-n8:16:32:64-S128"
target triple = "x86_64-pc-linux-gnu"

%"class.std::basic_ostream" = type { ptr, %"class.std::basic_ios" }
%"class.std::basic_ios" = type { %"class.std::ios_base", ptr, i8, i8, ptr, ptr, ptr, ptr }
%"class.std::ios_base" = type { ptr, i64, i64, i32, i32, i32, ptr, %"struct.std::ios_base::_Words", [8 x %"struct.std::ios_base::_Words"], i32, ptr, %"class.std::locale" }
%"struct.std::ios_base::_Words" = type { ptr, i64 }
%"class.std::locale" = type { ptr }
%struct.boxf = type { %struct.pointf_s, %struct.pointf_s }
%struct.pointf_s = type { double, double }
%struct.Agobj_s = type { %struct.Agtag_s, ptr }
%struct.Agtag_s = type { i32, i64 }
%struct.Agraphinfo_t = type { %struct.Agrec_s, ptr, ptr, %struct.boxf, [4 x %struct.pointf_s], i8, i8, i8, i8, i32, double, double, i16, ptr, ptr, ptr, ptr, i32, ptr, ptr, ptr, ptr, i16, i16, i32, ptr, ptr, ptr, ptr, ptr, i32, ptr, ptr, %struct.nlist_t, ptr, ptr, i32, i32, i8, i8, i32, i32, i32, ptr, ptr, ptr, ptr, i8, i8, i8, i8, i8 }
%struct.Agrec_s = type { ptr, ptr }
%struct.nlist_t = type { ptr, i64 }
%struct.Agedgeinfo_t = type { %struct.Agrec_s, ptr, %struct.port, %struct.port, ptr, ptr, ptr, ptr, i8, i8, i8, i8, i8, ptr, ptr, double, double, %struct.Ppoly_t, i8, i8, i16, i32, i32, i32, i16, i32, ptr }
%struct.port = type { %struct.pointf_s, double, ptr, i8, i8, i8, i8, i8, i8, ptr }
%struct.Ppoly_t = type { ptr, i64 }

@_ZSt4cerr = external global %"class.std::basic_ostream", align 8
@.str.32 = private unnamed_addr constant [13 x i8] c"Agraphinfo_t\00", align 1
@.str.33 = private unnamed_addr constant [13 x i8] c"Agnodeinfo_t\00", align 1
@.str.34 = private unnamed_addr constant [13 x i8] c"Agedgeinfo_t\00", align 1
@.str.35 = private unnamed_addr constant [4 x i8] c"dim\00", align 1
@.str.36 = private unnamed_addr constant [14 x i8] c"Error: graph \00", align 1
@.str.37 = private unnamed_addr constant [12 x i8] c" has dim = \00", align 1
@.str.38 = private unnamed_addr constant [9 x i8] c" (!= 2)\0A\00", align 1
@Ndim = external global i16, align 2
@.str.39 = private unnamed_addr constant [38 x i8] c"Error loading layout info from graph \00", align 1
@.str.40 = private unnamed_addr constant [55 x i8] c"gvpack does not support backgrounds as found in graph \00", align 1
@Concentrate = external global i8, align 1
@.str.41 = private unnamed_addr constant [4 x i8] c"pos\00", align 1
@.str.42 = private unnamed_addr constant [4 x i8] c"pin\00", align 1

; Function Attrs: mustprogress uwtable
define internal void @_ZL14init_node_edgeP8Agraph_s(ptr noundef %0) #7 {
  %2 = alloca ptr, align 8
  %3 = alloca ptr, align 8
  %4 = alloca ptr, align 8
  %5 = alloca i32, align 4
  %6 = alloca ptr, align 8
  %7 = alloca ptr, align 8
  store ptr %0, ptr %2, align 8, !tbaa !30
  call void @llvm.lifetime.start.p0(i64 8, ptr %3) #3
  call void @llvm.lifetime.start.p0(i64 8, ptr %4) #3
  call void @llvm.lifetime.start.p0(i64 4, ptr %5) #3
  %8 = load ptr, ptr %2, align 8, !tbaa !30
  %9 = call i32 @agnnodes(ptr noundef %8)
  store i32 %9, ptr %5, align 4, !tbaa !12
  call void @llvm.lifetime.start.p0(i64 8, ptr %6) #3
  %10 = load ptr, ptr %2, align 8, !tbaa !30
  %11 = call ptr @agattr(ptr noundef %10, i32 noundef 1, ptr noundef @.str.41, ptr noundef null)
  store ptr %11, ptr %6, align 8, !tbaa !64
  call void @llvm.lifetime.start.p0(i64 8, ptr %7) #3
  %12 = load ptr, ptr %2, align 8, !tbaa !30
  %13 = call ptr @agattr(ptr noundef %12, i32 noundef 1, ptr noundef @.str.42, ptr noundef null)
  store ptr %13, ptr %7, align 8, !tbaa !64
  %14 = load ptr, ptr %2, align 8, !tbaa !30
  %15 = call ptr @agfstnode(ptr noundef %14)
  store ptr %15, ptr %3, align 8, !tbaa !86
  br label %16

16:                                               ; preds = %26, %1
  %17 = load ptr, ptr %3, align 8, !tbaa !86
  %18 = icmp ne ptr %17, null
  br i1 %18, label %19, label %30

19:                                               ; preds = %16
  %20 = load ptr, ptr %3, align 8, !tbaa !86
  call void @neato_init_node(ptr noundef %20)
  %21 = load ptr, ptr %6, align 8, !tbaa !64
  %22 = load ptr, ptr %7, align 8, !tbaa !64
  %23 = load ptr, ptr %3, align 8, !tbaa !86
  %24 = load i32, ptr %5, align 4, !tbaa !12
  %25 = call zeroext i1 @user_pos(ptr noundef %21, ptr noundef %22, ptr noundef %23, i32 noundef %24)
  br label %26

26:                                               ; preds = %19
  %27 = load ptr, ptr %2, align 8, !tbaa !30
  %28 = load ptr, ptr %3, align 8, !tbaa !86
  %29 = call ptr @agnxtnode(ptr noundef %27, ptr noundef %28)
  store ptr %29, ptr %3, align 8, !tbaa !86
  br label %16, !llvm.loop !190

30:                                               ; preds = %16
  %31 = load ptr, ptr %2, align 8, !tbaa !30
  %32 = call ptr @agfstnode(ptr noundef %31)
  store ptr %32, ptr %3, align 8, !tbaa !86
  br label %33

33:                                               ; preds = %50, %30
  %34 = load ptr, ptr %3, align 8, !tbaa !86
  %35 = icmp ne ptr %34, null
  br i1 %35, label %36, label %54

36:                                               ; preds = %33
  %37 = load ptr, ptr %2, align 8, !tbaa !30
  %38 = load ptr, ptr %3, align 8, !tbaa !86
  %39 = call ptr @agfstout(ptr noundef %37, ptr noundef %38)
  store ptr %39, ptr %4, align 8, !tbaa !166
  br label %40

40:                                               ; preds = %45, %36
  %41 = load ptr, ptr %4, align 8, !tbaa !166
  %42 = icmp ne ptr %41, null
  br i1 %42, label %43, label %49

43:                                               ; preds = %40
  %44 = load ptr, ptr %4, align 8, !tbaa !166
  call void @common_init_edge(ptr noundef %44)
  br label %45

45:                                               ; preds = %43
  %46 = load ptr, ptr %2, align 8, !tbaa !30
  %47 = load ptr, ptr %4, align 8, !tbaa !166
  %48 = call ptr @agnxtout(ptr noundef %46, ptr noundef %47)
  store ptr %48, ptr %4, align 8, !tbaa !166
  br label %40, !llvm.loop !191

49:                                               ; preds = %40
  br label %50

50:                                               ; preds = %49
  %51 = load ptr, ptr %2, align 8, !tbaa !30
  %52 = load ptr, ptr %3, align 8, !tbaa !86
  %53 = call ptr @agnxtnode(ptr noundef %51, ptr noundef %52)
  store ptr %53, ptr %3, align 8, !tbaa !86
  br label %33, !llvm.loop !192

54:                                               ; preds = %33
  call void @llvm.lifetime.end.p0(i64 8, ptr %7) #3
  call void @llvm.lifetime.end.p0(i64 8, ptr %6) #3
  call void @llvm.lifetime.end.p0(i64 4, ptr %5) #3
  call void @llvm.lifetime.end.p0(i64 8, ptr %4) #3
  call void @llvm.lifetime.end.p0(i64 8, ptr %3) #3
  ret void
}

; Function Attrs: mustprogress uwtable
define internal void @_ZL10init_graphP8Agraph_sbP5GVC_s(ptr noundef %0, i1 noundef zeroext %1, ptr noundef %2) #7 {
  %4 = alloca ptr, align 8
  %5 = alloca i8, align 1
  %6 = alloca ptr, align 8
  %7 = alloca i32, align 4
  %8 = alloca ptr, align 8
  %9 = alloca ptr, align 8
  %10 = alloca i32, align 4
  store ptr %0, ptr %4, align 8, !tbaa !30
  %11 = zext i1 %1 to i8
  store i8 %11, ptr %5, align 1, !tbaa !23
  store ptr %2, ptr %6, align 8, !tbaa !24
  call void @llvm.lifetime.start.p0(i64 4, ptr %7) #3
  call void @llvm.lifetime.start.p0(i64 8, ptr %8) #3
  call void @llvm.lifetime.start.p0(i64 8, ptr %9) #3
  %12 = load ptr, ptr %4, align 8, !tbaa !30
  call void @aginit(ptr noundef %12, i32 noundef 0, ptr noundef @.str.32, i32 noundef 400, i32 noundef 1)
  %13 = load ptr, ptr %4, align 8, !tbaa !30
  call void @aginit(ptr noundef %13, i32 noundef 1, ptr noundef @.str.33, i32 noundef 472, i32 noundef 1)
  %14 = load ptr, ptr %4, align 8, !tbaa !30
  call void @aginit(ptr noundef %14, i32 noundef 2, ptr noundef @.str.34, i32 noundef 240, i32 noundef 1)
  %15 = load ptr, ptr %6, align 8, !tbaa !24
  %16 = load ptr, ptr %4, align 8, !tbaa !30
  %17 = getelementptr inbounds nuw %struct.Agobj_s, ptr %16, i32 0, i32 1
  %18 = load ptr, ptr %17, align 8, !tbaa !32
  %19 = getelementptr inbounds nuw %struct.Agraphinfo_t, ptr %18, i32 0, i32 14
  store ptr %15, ptr %19, align 8, !tbaa !163
  %20 = load ptr, ptr %4, align 8, !tbaa !30
  call void @graph_init(ptr noundef %20, i1 noundef zeroext false)
  %21 = load ptr, ptr %4, align 8, !tbaa !30
  %22 = load ptr, ptr %4, align 8, !tbaa !30
  %23 = call ptr @agattr(ptr noundef %22, i32 noundef 0, ptr noundef @.str.35, ptr noundef null)
  %24 = call i32 @late_int(ptr noundef %21, ptr noundef %23, i32 noundef 2, i32 noundef 2)
  store i32 %24, ptr %7, align 4, !tbaa !12
  %25 = load i32, ptr %7, align 4, !tbaa !12
  %26 = icmp ne i32 %25, 2
  br i1 %26, label %27, label %36

27:                                               ; preds = %3
  %28 = call noundef nonnull align 8 dereferenceable(8) ptr @_ZStlsISt11char_traitsIcEERSt13basic_ostreamIcT_ES5_PKc(ptr noundef nonnull align 8 dereferenceable(8) @_ZSt4cerr, ptr noundef @.str.36)
  %29 = load ptr, ptr %4, align 8, !tbaa !30
  %30 = call ptr @agnameof(ptr noundef %29)
  %31 = call noundef nonnull align 8 dereferenceable(8) ptr @_ZStlsISt11char_traitsIcEERSt13basic_ostreamIcT_ES5_PKc(ptr noundef nonnull align 8 dereferenceable(8) %28, ptr noundef %30)
  %32 = call noundef nonnull align 8 dereferenceable(8) ptr @_ZStlsISt11char_traitsIcEERSt13basic_ostreamIcT_ES5_PKc(ptr noundef nonnull align 8 dereferenceable(8) %31, ptr noundef @.str.37)
  %33 = load i32, ptr %7, align 4, !tbaa !12
  %34 = call noundef nonnull align 8 dereferenceable(8) ptr @_ZNSolsEi(ptr noundef nonnull align 8 dereferenceable(8) %32, i32 noundef %33)
  %35 = call noundef nonnull align 8 dereferenceable(8) ptr @_ZStlsISt11char_traitsIcEERSt13basic_ostreamIcT_ES5_PKc(ptr noundef nonnull align 8 dereferenceable(8) %34, ptr noundef @.str.38)
  call void @_ZL13graphviz_exiti(i32 noundef 1) #23
  unreachable

36:                                               ; preds = %3
  %37 = load ptr, ptr %4, align 8, !tbaa !30
  %38 = getelementptr inbounds nuw %struct.Agobj_s, ptr %37, i32 0, i32 1
  %39 = load ptr, ptr %38, align 8, !tbaa !32
  %40 = getelementptr inbounds nuw %struct.Agraphinfo_t, ptr %39, i32 0, i32 22
  store i16 2, ptr %40, align 8, !tbaa !164
  store i16 2, ptr @Ndim, align 2, !tbaa !165
  %41 = load ptr, ptr %4, align 8, !tbaa !30
  call void @_ZL14init_node_edgeP8Agraph_s(ptr noundef %41)
  %42 = load i8, ptr %5, align 1, !tbaa !23, !range !26, !noundef !27
  %43 = trunc i8 %42 to i1
  br i1 %43, label %44, label %109

44:                                               ; preds = %36
  call void @llvm.lifetime.start.p0(i64 4, ptr %10) #3
  %45 = load ptr, ptr %4, align 8, !tbaa !30
  %46 = call i32 @init_nop(ptr noundef %45, i32 noundef 0)
  store i32 %46, ptr %10, align 4, !tbaa !12
  %47 = load i32, ptr %10, align 4, !tbaa !12
  %48 = icmp ne i32 %47, 0
  br i1 %48, label %49, label %69

49:                                               ; preds = %44
  %50 = load i32, ptr %10, align 4, !tbaa !12
  %51 = icmp slt i32 %50, 0
  br i1 %51, label %52, label %58

52:                                               ; preds = %49
  %53 = call noundef nonnull align 8 dereferenceable(8) ptr @_ZStlsISt11char_traitsIcEERSt13basic_ostreamIcT_ES5_PKc(ptr noundef nonnull align 8 dereferenceable(8) @_ZSt4cerr, ptr noundef @.str.39)
  %54 = load ptr, ptr %4, align 8, !tbaa !30
  %55 = call ptr @agnameof(ptr noundef %54)
  %56 = call noundef nonnull align 8 dereferenceable(8) ptr @_ZStlsISt11char_traitsIcEERSt13basic_ostreamIcT_ES5_PKc(ptr noundef nonnull align 8 dereferenceable(8) %53, ptr noundef %55)
  %57 = call noundef nonnull align 8 dereferenceable(8) ptr @_ZStlsISt11char_traitsIcEERSt13basic_ostreamIcT_ES5_c(ptr noundef nonnull align 8 dereferenceable(8) %56, i8 noundef signext 10)
  br label %68

58:                                               ; preds = %49
  %59 = load i32, ptr %10, align 4, !tbaa !12
  %60 = icmp sgt i32 %59, 0
  br i1 %60, label %61, label %67

61:                                               ; preds = %58
  %62 = call noundef nonnull align 8 dereferenceable(8) ptr @_ZStlsISt11char_traitsIcEERSt13basic_ostreamIcT_ES5_PKc(ptr noundef nonnull align 8 dereferenceable(8) @_ZSt4cerr, ptr noundef @.str.40)
  %63 = load ptr, ptr %4, align 8, !tbaa !30
  %64 = call ptr @agnameof(ptr noundef %63)
  %65 = call noundef nonnull align 8 dereferenceable(8) ptr @_ZStlsISt11char_traitsIcEERSt13basic_ostreamIcT_ES5_PKc(ptr noundef nonnull align 8 dereferenceable(8) %62, ptr noundef %64)
  %66 = call noundef nonnull align 8 dereferenceable(8) ptr @_ZStlsISt11char_traitsIcEERSt13basic_ostreamIcT_ES5_c(ptr noundef nonnull align 8 dereferenceable(8) %65, i8 noundef signext 10)
  br label %67

67:                                               ; preds = %61, %58
  br label %68

68:                                               ; preds = %67, %52
  call void @_ZL13graphviz_exiti(i32 noundef 1) #23
  unreachable

69:                                               ; preds = %44
  call void @llvm.lifetime.end.p0(i64 4, ptr %10) #3
  %70 = load i8, ptr @Concentrate, align 1, !tbaa !23, !range !26, !noundef !27
  %71 = trunc i8 %70 to i1
  br i1 %71, label %72, label %108

72:                                               ; preds = %69
  %73 = load ptr, ptr %4, align 8, !tbaa !30
  %74 = call ptr @agfstnode(ptr noundef %73)
  store ptr %74, ptr %8, align 8, !tbaa !86
  br label %75

75:                                               ; preds = %103, %72
  %76 = load ptr, ptr %8, align 8, !tbaa !86
  %77 = icmp ne ptr %76, null
  br i1 %77, label %78, label %107

78:                                               ; preds = %75
  %79 = load ptr, ptr %4, align 8, !tbaa !30
  %80 = load ptr, ptr %8, align 8, !tbaa !86
  %81 = call ptr @agfstout(ptr noundef %79, ptr noundef %80)
  store ptr %81, ptr %9, align 8, !tbaa !166
  br label %82

82:                                               ; preds = %98, %78
  %83 = load ptr, ptr %9, align 8, !tbaa !166
  %84 = icmp ne ptr %83, null
  br i1 %84, label %85, label %102

85:                                               ; preds = %82
  %86 = load ptr, ptr %9, align 8, !tbaa !166
  %87 = getelementptr inbounds nuw %struct.Agobj_s, ptr %86, i32 0, i32 1
  %88 = load ptr, ptr %87, align 8, !tbaa !32
  %89 = getelementptr inbounds nuw %struct.Agedgeinfo_t, ptr %88, i32 0, i32 1
  %90 = load ptr, ptr %89, align 8, !tbaa !167
  %91 = icmp eq ptr %90, null
  br i1 %91, label %92, label %97

92:                                               ; preds = %85
  %93 = load ptr, ptr %9, align 8, !tbaa !166
  %94 = getelementptr inbounds nuw %struct.Agobj_s, ptr %93, i32 0, i32 1
  %95 = load ptr, ptr %94, align 8, !tbaa !32
  %96 = getelementptr inbounds nuw %struct.Agedgeinfo_t, ptr %95, i32 0, i32 8
  store i8 6, ptr %96, align 8, !tbaa !173
  br label %97

97:                                               ; preds = %92, %85
  br label %98

98:                                               ; preds = %97
  %99 = load ptr, ptr %4, align 8, !tbaa !30
  %100 = load ptr, ptr %9, align 8, !tbaa !166
  %101 = call ptr @agnxtout(ptr noundef %99, ptr noundef %100)
  store ptr %101, ptr %9, align 8, !tbaa !166
  br label %82, !llvm.loop !174

102:                                              ; preds = %82
  br label %103

103:                                              ; preds = %102
  %104 = load ptr, ptr %4, align 8, !tbaa !30
  %105 = load ptr, ptr %8, align 8, !tbaa !86
  %106 = call ptr @agnxtnode(ptr noundef %104, ptr noundef %105)
  store ptr %106, ptr %8, align 8, !tbaa !86
  br label %75, !llvm.loop !175

107:                                              ; preds = %75
  br label %108

108:                                              ; preds = %107, %69
  br label %109

109:                                              ; preds = %108, %36
  call void @llvm.lifetime.end.p0(i64 8, ptr %9) #3
  call void @llvm.lifetime.end.p0(i64 8, ptr %8) #3
  call void @llvm.lifetime.end.p0(i64 4, ptr %7) #3
  ret void
}