; Function Attrs: mustprogress norecurse uwtable
define internal fastcc void @_ZL10init_graphP8Agraph_sbP5GVC_s(ptr noundef %0, i1 noundef zeroext %1, ptr noundef %2) unnamed_addr #17 {
  tail call void @aginit(ptr noundef %0, i32 noundef 0, ptr noundef nonnull @.str.32, i32 noundef 400, i32 noundef 1)
  tail call void @aginit(ptr noundef %0, i32 noundef 1, ptr noundef nonnull @.str.33, i32 noundef 472, i32 noundef 1)
  tail call void @aginit(ptr noundef %0, i32 noundef 2, ptr noundef nonnull @.str.34, i32 noundef 240, i32 noundef 1)
  %4 = getelementptr inbounds nuw i8, ptr %0, i64 16
  %5 = load ptr, ptr %4, align 8, !tbaa !81
  %6 = getelementptr inbounds nuw i8, ptr %5, i64 168
  store ptr %2, ptr %6, align 8, !tbaa !135
  tail call void @graph_init(ptr noundef %0, i1 noundef zeroext false)
  %7 = tail call ptr @agattr(ptr noundef %0, i32 noundef 0, ptr noundef nonnull @.str.35, ptr noundef null)
  %8 = tail call i32 @late_int(ptr noundef %0, ptr noundef %7, i32 noundef 2, i32 noundef 2)
  %.not = icmp eq i32 %8, 2
  br i1 %.not, label %16, label %9

9:                                                ; preds = %3
  %10 = tail call noundef nonnull align 8 dereferenceable(8) ptr @_ZStlsISt11char_traitsIcEERSt13basic_ostreamIcT_ES5_PKc(ptr noundef nonnull align 8 dereferenceable(8) @_ZSt4cerr, ptr noundef nonnull @.str.36)
  %11 = tail call ptr @agnameof(ptr noundef nonnull %0)
  %12 = tail call noundef nonnull align 8 dereferenceable(8) ptr @_ZStlsISt11char_traitsIcEERSt13basic_ostreamIcT_ES5_PKc(ptr noundef nonnull align 8 dereferenceable(8) %10, ptr noundef %11)
  %13 = tail call noundef nonnull align 8 dereferenceable(8) ptr @_ZStlsISt11char_traitsIcEERSt13basic_ostreamIcT_ES5_PKc(ptr noundef nonnull align 8 dereferenceable(8) %12, ptr noundef nonnull @.str.37)
  %14 = tail call noundef nonnull align 8 dereferenceable(8) ptr @_ZNSolsEi(ptr noundef nonnull align 8 dereferenceable(8) %13, i32 noundef %8)
  %15 = tail call noundef nonnull align 8 dereferenceable(8) ptr @_ZStlsISt11char_traitsIcEERSt13basic_ostreamIcT_ES5_PKc(ptr noundef nonnull align 8 dereferenceable(8) %14, ptr noundef nonnull @.str.38)
  tail call fastcc void @_ZL13graphviz_exiti(i32 noundef 1) #32
  unreachable

16:                                               ; preds = %3
  %17 = load ptr, ptr %4, align 8, !tbaa !81
  %18 = getelementptr inbounds nuw i8, ptr %17, i64 232
  store i16 2, ptr %18, align 8, !tbaa !136
  store i16 2, ptr @Ndim, align 2, !tbaa !137
  %19 = tail call i32 @agnnodes(ptr noundef nonnull %0)
  %20 = tail call ptr @agattr(ptr noundef nonnull %0, i32 noundef 1, ptr noundef nonnull @.str.41, ptr noundef null)
  %21 = tail call ptr @agattr(ptr noundef nonnull %0, i32 noundef 1, ptr noundef nonnull @.str.42, ptr noundef null)
  %22 = tail call ptr @agfstnode(ptr noundef nonnull %0)
  %.not24.i = icmp eq ptr %22, null
  br i1 %.not24.i, label %._crit_edge.i, label %.lr.ph.i

.lr.ph.i:                                         ; preds = %16, %.lr.ph.i
  %.025.i = phi ptr [ %24, %.lr.ph.i ], [ %22, %16 ]
  tail call void @neato_init_node(ptr noundef nonnull %.025.i)
  %23 = tail call zeroext i1 @user_pos(ptr noundef %20, ptr noundef %21, ptr noundef nonnull %.025.i, i32 noundef %19)
  %24 = tail call ptr @agnxtnode(ptr noundef nonnull %0, ptr noundef nonnull %.025.i)
  %.not.i = icmp eq ptr %24, null
  br i1 %.not.i, label %._crit_edge.i, label %.lr.ph.i, !llvm.loop !138

._crit_edge.i:                                    ; preds = %.lr.ph.i, %16
  %25 = tail call ptr @agfstnode(ptr noundef nonnull %0)
  %.not2231.i = icmp eq ptr %25, null
  br i1 %.not2231.i, label %_ZL14init_node_edgeP8Agraph_s.exit, label %.lr.ph34.i

.lr.ph34.i:                                       ; preds = %._crit_edge.i, %._crit_edge30.i
  %.132.i = phi ptr [ %28, %._crit_edge30.i ], [ %25, %._crit_edge.i ]
  %26 = tail call ptr @agfstout(ptr noundef nonnull %0, ptr noundef nonnull %.132.i)
  %.not2326.i = icmp eq ptr %26, null
  br i1 %.not2326.i, label %._crit_edge30.i, label %.lr.ph29.i

.lr.ph29.i:                                       ; preds = %.lr.ph34.i, %.lr.ph29.i
  %.02127.i = phi ptr [ %27, %.lr.ph29.i ], [ %26, %.lr.ph34.i ]
  tail call void @common_init_edge(ptr noundef nonnull %.02127.i)
  %27 = tail call ptr @agnxtout(ptr noundef nonnull %0, ptr noundef nonnull %.02127.i)
  %.not23.i = icmp eq ptr %27, null
  br i1 %.not23.i, label %._crit_edge30.i, label %.lr.ph29.i, !llvm.loop !139

._crit_edge30.i:                                  ; preds = %.lr.ph29.i, %.lr.ph34.i
  %28 = tail call ptr @agnxtnode(ptr noundef nonnull %0, ptr noundef nonnull %.132.i)
  %.not22.i = icmp eq ptr %28, null
  br i1 %.not22.i, label %_ZL14init_node_edgeP8Agraph_s.exit, label %.lr.ph34.i, !llvm.loop !140

_ZL14init_node_edgeP8Agraph_s.exit:               ; preds = %._crit_edge30.i, %._crit_edge.i
  br i1 %1, label %29, label %.loopexit

29:                                               ; preds = %_ZL14init_node_edgeP8Agraph_s.exit
  %30 = tail call i32 @init_nop(ptr noundef nonnull %0, i32 noundef 0)
  %.not33 = icmp eq i32 %30, 0
  br i1 %.not33, label %37, label %31

31:                                               ; preds = %29
  %32 = icmp slt i32 %30, 0
  %. = select i1 %32, i64 37, i64 54
  %.str.39..str.40 = select i1 %32, ptr @.str.39, ptr @.str.40
  %33 = tail call noundef nonnull align 8 dereferenceable(8) ptr @_ZSt16__ostream_insertIcSt11char_traitsIcEERSt13basic_ostreamIT_T0_ES6_PKS3_l(ptr noundef nonnull align 8 dereferenceable(8) @_ZSt4cerr, ptr noundef nonnull %.str.39..str.40, i64 noundef %.)
  %34 = tail call ptr @agnameof(ptr noundef nonnull %0)
  %35 = tail call noundef nonnull align 8 dereferenceable(8) ptr @_ZStlsISt11char_traitsIcEERSt13basic_ostreamIcT_ES5_PKc(ptr noundef nonnull align 8 dereferenceable(8) @_ZSt4cerr, ptr noundef %34)
  %36 = tail call noundef nonnull align 8 dereferenceable(8) ptr @_ZStlsISt11char_traitsIcEERSt13basic_ostreamIcT_ES5_c(ptr noundef nonnull align 8 dereferenceable(8) %35, i8 noundef signext 10)
  tail call fastcc void @_ZL13graphviz_exiti(i32 noundef 1) #32
  unreachable

37:                                               ; preds = %29
  %38 = load i8, ptr @Concentrate, align 1, !tbaa !56, !range !63, !noundef !64
  %39 = trunc nuw i8 %38 to i1
  br i1 %39, label %40, label %.loopexit

40:                                               ; preds = %37
  %41 = tail call ptr @agfstnode(ptr noundef nonnull %0)
  %.not3438 = icmp eq ptr %41, null
  br i1 %.not3438, label %.loopexit, label %.lr.ph41

.lr.ph41:                                         ; preds = %40, %._crit_edge
  %.039 = phi ptr [ %52, %._crit_edge ], [ %41, %40 ]
  %42 = tail call ptr @agfstout(ptr noundef nonnull %0, ptr noundef nonnull %.039)
  %.not3536 = icmp eq ptr %42, null
  br i1 %.not3536, label %._crit_edge, label %.lr.ph

.lr.ph:                                           ; preds = %.lr.ph41, %50
  %.03037 = phi ptr [ %51, %50 ], [ %42, %.lr.ph41 ]
  %43 = getelementptr inbounds nuw i8, ptr %.03037, i64 16
  %44 = load ptr, ptr %43, align 8, !tbaa !81
  %45 = getelementptr inbounds nuw i8, ptr %44, i64 16
  %46 = load ptr, ptr %45, align 8, !tbaa !141
  %47 = icmp eq ptr %46, null
  br i1 %47, label %48, label %50

48:                                               ; preds = %.lr.ph
  %49 = getelementptr inbounds nuw i8, ptr %44, i64 152
  store i8 6, ptr %49, align 8, !tbaa !147
  br label %50

50:                                               ; preds = %.lr.ph, %48
  %51 = tail call ptr @agnxtout(ptr noundef nonnull %0, ptr noundef nonnull %.03037)
  %.not35 = icmp eq ptr %51, null
  br i1 %.not35, label %._crit_edge, label %.lr.ph, !llvm.loop !148

._crit_edge:                                      ; preds = %50, %.lr.ph41
  %52 = tail call ptr @agnxtnode(ptr noundef nonnull %0, ptr noundef nonnull %.039)
  %.not34 = icmp eq ptr %52, null
  br i1 %.not34, label %.loopexit, label %.lr.ph41, !llvm.loop !149

.loopexit:                                        ; preds = %._crit_edge, %40, %37, %_ZL14init_node_edgeP8Agraph_s.exit
  ret void
}